target datalayout = "e-m:e-p270:32:32-p271:32:32-p272:64:64-i64:64-i128:128-f80:128-n8:16:32:64-S128"
target triple = "x86_64-pc-linux-gnu"

@.str.5 = private unnamed_addr constant [32 x i8] c"../openssl/test/punycode_test.c\00", align 1
@.str.49 = private unnamed_addr constant [4 x i8] c"out\00", align 1
@test_puny_overrun.out = internal constant [8 x i32] [i32 51, i32 24180, i32 66, i32 32068, i32 37329, i32 20843, i32 20808, i32 29983], align 16
@test_puny_overrun.in = internal global ptr @.str.21, align 8
@.str.58 = private unnamed_addr constant [50 x i8] c"ossl_punycode_decode(in, strlen(in), buf, &bsize)\00", align 1
@.str.59 = private unnamed_addr constant [4 x i8] c"buf\00", align 1
@.str.60 = private unnamed_addr constant [35 x i8] c"CRITICAL: buffer overrun detected!\00", align 1

; Function Attrs: nounwind uwtable
define internal i32 @test_puny_overrun() #0 {
  %1 = alloca i32, align 4
  %2 = alloca [8 x i32], align 16
  %3 = alloca i32, align 4
  %4 = alloca i32, align 4
  call void @llvm.lifetime.start.p0(i64 32, ptr %2) #7
  call void @llvm.lifetime.start.p0(i64 4, ptr %3) #7
  store i32 7, ptr %3, align 4, !tbaa !4
  %5 = load ptr, ptr @test_puny_overrun.in, align 8, !tbaa !18
  %6 = load ptr, ptr @test_puny_overrun.in, align 8, !tbaa !18
  %7 = call i64 @strlen(ptr noundef %6) #8
  %8 = getelementptr inbounds [8 x i32], ptr %2, i64 0, i64 0
  %9 = call i32 @ossl_punycode_decode(ptr noundef %5, i64 noundef %7, ptr noundef %8, ptr noundef %3)
  %10 = icmp ne i32 %9, 0
  %11 = zext i1 %10 to i32
  %12 = call i32 @test_false(ptr noundef @.str.5, i32 noundef 231, ptr noundef @.str.58, i32 noundef %11)
  %13 = icmp ne i32 %12, 0
  br i1 %13, label %23, label %14

14:                                               ; preds = %0
  %15 = getelementptr inbounds [8 x i32], ptr %2, i64 0, i64 0
  %16 = load i32, ptr %3, align 4, !tbaa !4
  %17 = zext i32 %16 to i64
  %18 = mul i64 %17, 4
  %19 = call i32 @test_mem_eq(ptr noundef @.str.5, i32 noundef 232, ptr noundef @.str.59, ptr noundef @.str.49, ptr noundef %15, i64 noundef %18, ptr noundef @test_puny_overrun.out, i64 noundef 32)
  %20 = icmp ne i32 %19, 0
  br i1 %20, label %21, label %22

21:                                               ; preds = %14
  call void (ptr, i32, ptr, ...) @test_error(ptr noundef @.str.5, i32 noundef 233, ptr noundef @.str.60)
  br label %22

22:                                               ; preds = %21, %14
  store i32 0, ptr %1, align 4
  store i32 1, ptr %4, align 4
  br label %24

23:                                               ; preds = %0
  store i32 1, ptr %1, align 4
  store i32 1, ptr %4, align 4
  br label %24

24:                                               ; preds = %23, %22
  call void @llvm.lifetime.end.p0(i64 4, ptr %3) #7
  call void @llvm.lifetime.end.p0(i64 32, ptr %2) #7
  %25 = load i32, ptr %1, align 4
  ret i32 %25
}