; Function Attrs: nounwind uwtable
define internal range(i32 0, 2) i32 @test_puny_overrun() #0 {
  %1 = alloca [8 x i32], align 16
  %2 = alloca i32, align 4
  call void @llvm.lifetime.start.p0(i64 32, ptr nonnull %1) #6
  call void @llvm.lifetime.start.p0(i64 4, ptr nonnull %2) #6
  store i32 7, ptr %2, align 4, !tbaa !4
  %3 = call i32 @ossl_punycode_decode(ptr noundef nonnull @.str.21, i64 noundef 24, ptr noundef nonnull %1, ptr noundef nonnull %2) #6
  %4 = icmp ne i32 %3, 0
  %5 = zext i1 %4 to i32
  %6 = call i32 @test_false(ptr noundef nonnull @.str.5, i32 noundef 231, ptr noundef nonnull @.str.58, i32 noundef %5) #6
  %.not = icmp eq i32 %6, 0
  br i1 %.not, label %7, label %13

7:                                                ; preds = %0
  %8 = load i32, ptr %2, align 4, !tbaa !4
  %9 = zext i32 %8 to i64
  %10 = shl nuw nsw i64 %9, 2
  %11 = call i32 @test_mem_eq(ptr noundef nonnull @.str.5, i32 noundef 232, ptr noundef nonnull @.str.59, ptr noundef nonnull @.str.49, ptr noundef nonnull %1, i64 noundef %10, ptr noundef nonnull @test_puny_overrun.out, i64 noundef 32) #6
  %.not1 = icmp eq i32 %11, 0
  br i1 %.not1, label %13, label %12

12:                                               ; preds = %7
  call void (ptr, i32, ptr, ...) @test_error(ptr noundef nonnull @.str.5, i32 noundef 233, ptr noundef nonnull @.str.60) #6
  br label %13

13:                                               ; preds = %0, %7, %12
  %.0 = phi i32 [ 0, %12 ], [ 0, %7 ], [ 1, %0 ]
  call void @llvm.lifetime.end.p0(i64 4, ptr nonnull %2) #6
  call void @llvm.lifetime.end.p0(i64 32, ptr nonnull %1) #6
  ret i32 %.0
}